Certificate Request:
    Data:
        Version: 1 (0x0)
        Subject: C=DZ, O=ESI, OU=IT, L=ALGER, CN=Benzii
        Subject Public Key Info:
            Public Key Algorithm: rsaEncryption
                Public-Key: (2048 bit)
                Modulus:
                    00:b4:b9:40:34:2c:06:56:13:20:48:4b:ca:f3:47:
                    38:0f:75:30:fc:a5:58:9b:5c:f8:fb:09:28:ab:dd:
                    55:da:22:07:83:8d:bd:b4:09:b3:76:4f:69:72:02:
                    0e:b9:2b:c4:cc:d7:a5:ff:9c:3c:72:92:56:18:38:
                    68:1d:ec:99:bb:e0:3b:02:42:a3:3d:88:2f:01:21:
                    59:fd:67:f8:1d:ff:95:65:e2:07:7b:7d:46:96:b3:
                    1b:34:3d:75:a9:fb:b4:b7:33:4c:bb:c9:d6:4c:54:
                    cb:77:4e:e0:7f:94:02:cc:1b:05:54:ed:9a:13:29:
                    c6:58:93:e1:3a:79:0a:96:8c:c7:c8:86:60:d1:79:
                    b7:af:d8:64:1e:54:7b:c9:62:92:6a:fb:91:45:e6:
                    e0:fc:f8:2b:48:d5:5e:43:79:9a:ba:e4:f7:98:60:
                    84:79:e9:90:7f:93:4c:63:fe:cc:5d:2c:6e:a4:75:
                    9d:f4:85:a3:11:04:97:eb:90:df:15:18:dd:7e:f0:
                    f7:28:72:50:4b:09:38:c5:93:f5:65:51:22:5c:f8:
                    7f:00:bb:a1:c9:e8:8d:2d:f7:2b:59:8c:b4:87:ee:
                    9a:5e:45:25:a7:20:cd:d4:c4:1b:0c:5c:2a:a4:c9:
                    29:e2:5f:8f:3a:c1:69:6c:2e:24:25:f4:71:69:c1:
                    52:bd
                Exponent: 65537 (0x10001)
        Attributes:
            Requested Extensions:
                X509v3 Subject Alternative Name: 
                    DNS:esi.dz, email:benzii@esi.dz, email:benzii@esi.dz
                X509v3 Key Usage: critical
                    Digital Signature, Non Repudiation, Key Encipherment, Data Encipherment
    Signature Algorithm: sha256WithRSAEncryption
    Signature Value:
        11:d9:d7:71:49:f6:15:4f:ad:ac:d9:d6:ab:b9:d0:32:4c:26:
        aa:a7:1c:a8:1a:17:62:03:8b:29:f9:df:ed:48:e1:3c:eb:80:
        ac:c7:c0:18:ed:bb:d4:85:c8:79:e8:08:3a:be:e5:40:a5:87:
        77:ca:5b:bb:61:16:83:8e:b9:7a:42:f1:42:73:8d:60:3d:35:
        90:1d:b8:f1:04:7d:a0:67:c7:61:ed:35:1b:ca:47:01:3b:c5:
        2e:f6:2e:19:7b:de:fb:a9:92:f4:fd:d7:c3:ba:63:07:10:6a:
        5b:59:76:fd:68:bf:b9:ec:4d:3e:a6:d0:34:43:03:f0:56:a3:
        6b:3a:fb:d4:83:c2:33:cf:16:cb:16:b5:9e:f2:0a:36:ed:fa:
        f3:20:74:24:1a:01:3e:23:ec:62:4e:64:3e:64:ee:4a:e8:0b:
        e0:ba:94:a4:78:4c:23:ca:5b:95:cb:4b:cf:c7:9f:26:67:fa:
        d3:e6:1b:29:aa:b3:52:3b:ab:54:7f:21:5f:e6:6f:3c:04:92:
        e9:9f:0e:63:ec:60:4f:18:2b:db:22:d2:ff:7a:65:dc:2d:bc:
        52:5a:fc:f8:57:26:b7:c9:6f:45:c5:eb:31:60:95:05:57:2b:
        1b:64:2b:b7:bc:8b:b7:60:60:67:2c:32:2a:9e:f8:38:3f:b5:
        02:46:13:d2
-----BEGIN CERTIFICATE REQUEST-----
MIIC4DCCAcgCAQAwSTELMAkGA1UEBhMCRFoxDDAKBgNVBAoTA0VTSTELMAkGA1UE
CxMCSVQxDjAMBgNVBAcTBUFMR0VSMQ8wDQYDVQQDEwZCZW56aWkwggEiMA0GCSqG
SIb3DQEBAQUAA4IBDwAwggEKAoIBAQC0uUA0LAZWEyBIS8rzRzgPdTD8pVibXPj7
CSir3VXaIgeDjb20CbN2T2lyAg65K8TM16X/nDxyklYYOGgd7Jm74DsCQqM9iC8B
IVn9Z/gd/5Vl4gd7fUaWsxs0PXWp+7S3M0y7ydZMVMt3TuB/lALMGwVU7ZoTKcZY
k+E6eQqWjMfIhmDRebev2GQeVHvJYpJq+5FF5uD8+CtI1V5DeZq65PeYYIR56ZB/
k0xj/sxdLG6kdZ30haMRBJfrkN8VGN1+8PcoclBLCTjFk/VlUSJc+H8Au6HJ6I0t
9ytZjLSH7ppeRSWnIM3UxBsMXCqkySniX486wWlsLiQl9HFpwVK9AgMBAAGgUjBQ
BgkqhkiG9w0BCQ4xQzBBMC8GA1UdEQQoMCaCBmVzaS5keoENYmVuemlpQGVzaS5k
eoENYmVuemlpQGVzaS5kejAOBgNVHQ8BAf8EBAMCBPAwDQYJKoZIhvcNAQELBQAD
ggEBABHZ13FJ9hVPrazZ1qu50DJMJqqnHKgaF2IDiyn53+1I4TzrgKzHwBjtu9SF
yHnoCDq+5UClh3fKW7thFoOOuXpC8UJzjWA9NZAduPEEfaBnx2HtNRvKRwE7xS72
Lhl73vupkvT918O6YwcQaltZdv1ov7nsTT6m0DRDA/BWo2s6+9SDwjPPFssWtZ7y
Cjbt+vMgdCQaAT4j7GJOZD5k7kroC+C6lKR4TCPKW5XLS8/HnyZn+tPmGymqs1I7
q1R/IV/mbzwEkumfDmPsYE8YK9si0v96ZdwtvFJa/PhXJrfJb0XF6zFglQVXKxtk
K7e8i7dgYGcsMiqe+Dg/tQJGE9I=
-----END CERTIFICATE REQUEST-----
