Certificate:
    Data:
        Version: 3 (0x2)
        Serial Number: 3 (0x3)
        Signature Algorithm: sha256WithRSAEncryption
        Issuer: C=DZ, ST=ALGIERS, L=ALGIERS, O=ESI, OU=IT, CN=ESI CA
        Validity
            Not Before: Mar 23 17:15:02 2026 GMT
            Not After : Mar 23 17:15:02 2027 GMT
        Subject: C=DZ, L=ALGER, O=ESI, OU=IT, CN=Benzii
        Subject Public Key Info:
            Public Key Algorithm: rsaEncryption
                Public-Key: (2048 bit)
                Modulus:
                    00:b4:b9:40:34:2c:06:56:13:20:48:4b:ca:f3:47:
                    38:0f:75:30:fc:a5:58:9b:5c:f8:fb:09:28:ab:dd:
                    55:da:22:07:83:8d:bd:b4:09:b3:76:4f:69:72:02:
                    0e:b9:2b:c4:cc:d7:a5:ff:9c:3c:72:92:56:18:38:
                    68:1d:ec:99:bb:e0:3b:02:42:a3:3d:88:2f:01:21:
                    59:fd:67:f8:1d:ff:95:65:e2:07:7b:7d:46:96:b3:
                    1b:34:3d:75:a9:fb:b4:b7:33:4c:bb:c9:d6:4c:54:
                    cb:77:4e:e0:7f:94:02:cc:1b:05:54:ed:9a:13:29:
                    c6:58:93:e1:3a:79:0a:96:8c:c7:c8:86:60:d1:79:
                    b7:af:d8:64:1e:54:7b:c9:62:92:6a:fb:91:45:e6:
                    e0:fc:f8:2b:48:d5:5e:43:79:9a:ba:e4:f7:98:60:
                    84:79:e9:90:7f:93:4c:63:fe:cc:5d:2c:6e:a4:75:
                    9d:f4:85:a3:11:04:97:eb:90:df:15:18:dd:7e:f0:
                    f7:28:72:50:4b:09:38:c5:93:f5:65:51:22:5c:f8:
                    7f:00:bb:a1:c9:e8:8d:2d:f7:2b:59:8c:b4:87:ee:
                    9a:5e:45:25:a7:20:cd:d4:c4:1b:0c:5c:2a:a4:c9:
                    29:e2:5f:8f:3a:c1:69:6c:2e:24:25:f4:71:69:c1:
                    52:bd
                Exponent: 65537 (0x10001)
        X509v3 extensions:
            X509v3 Basic Constraints: 
                CA:FALSE
            X509v3 Subject Key Identifier: 
                14:EA:98:41:44:DF:7C:1D:59:1D:A8:8F:14:29:27:C7:FA:23:7D:3E
            X509v3 Authority Key Identifier: 
                86:FA:D5:53:50:74:4F:F2:B8:72:B2:B0:D1:B4:6F:46:76:5F:D6:C1
    Signature Algorithm: sha256WithRSAEncryption
    Signature Value:
        0a:80:d4:d1:c7:8e:f1:34:31:3a:6c:f2:7e:4a:18:4a:06:ca:
        8e:72:a9:10:88:b9:41:6a:ce:fe:05:84:aa:db:a6:a0:9d:d4:
        d8:3c:48:90:b4:c6:1c:93:5b:95:38:63:e3:fd:65:79:82:2d:
        bd:85:4a:de:23:34:0e:73:c7:54:4e:1b:aa:7d:e5:98:ca:b7:
        eb:65:da:60:31:ab:14:b2:57:79:48:b0:b1:34:bd:18:ce:b6:
        3d:78:c9:d5:2e:78:60:8b:b7:9e:8e:72:42:fa:ed:7a:b3:dc:
        b0:6e:c5:1e:39:bf:74:05:e6:97:fc:d4:d6:83:40:81:56:ed:
        0e:4b:98:8f:ec:0a:56:fb:11:b4:b5:d5:20:d3:4e:30:98:40:
        28:8f:73:82:a6:9c:7b:fb:07:46:a3:0d:75:3a:b0:b5:7d:d6:
        32:e7:16:2d:c4:9f:38:56:97:a3:b9:f5:a1:76:47:7a:6a:06:
        e3:c3:76:99:a4:16:d7:1f:fe:d2:95:fa:e1:d8:be:f5:34:44:
        c3:e2:d3:3c:2d:46:f4:e4:74:06:16:31:9a:cf:f9:de:77:59:
        66:28:dc:c3:5c:d2:5f:d1:97:11:d4:e8:cb:92:93:ec:54:f2:
        a2:ad:8c:eb:de:b7:17:99:83:23:17:1a:88:e1:6b:80:1c:49:
        fb:dc:0b:5d
-----BEGIN CERTIFICATE-----
MIIDbjCCAlagAwIBAgIBAzANBgkqhkiG9w0BAQsFADBdMQswCQYDVQQGEwJEWjEQ
MA4GA1UECAwHQUxHSUVSUzEQMA4GA1UEBwwHQUxHSUVSUzEMMAoGA1UECgwDRVNJ
MQswCQYDVQQLDAJJVDEPMA0GA1UEAwwGRVNJIENBMB4XDTI2MDMyMzE3MTUwMloX
DTI3MDMyMzE3MTUwMlowSTELMAkGA1UEBhMCRFoxDjAMBgNVBAcTBUFMR0VSMQww
CgYDVQQKEwNFU0kxCzAJBgNVBAsTAklUMQ8wDQYDVQQDEwZCZW56aWkwggEiMA0G
CSqGSIb3DQEBAQUAA4IBDwAwggEKAoIBAQC0uUA0LAZWEyBIS8rzRzgPdTD8pVib
XPj7CSir3VXaIgeDjb20CbN2T2lyAg65K8TM16X/nDxyklYYOGgd7Jm74DsCQqM9
iC8BIVn9Z/gd/5Vl4gd7fUaWsxs0PXWp+7S3M0y7ydZMVMt3TuB/lALMGwVU7ZoT
KcZYk+E6eQqWjMfIhmDRebev2GQeVHvJYpJq+5FF5uD8+CtI1V5DeZq65PeYYIR5
6ZB/k0xj/sxdLG6kdZ30haMRBJfrkN8VGN1+8PcoclBLCTjFk/VlUSJc+H8Au6HJ
6I0t9ytZjLSH7ppeRSWnIM3UxBsMXCqkySniX486wWlsLiQl9HFpwVK9AgMBAAGj
TTBLMAkGA1UdEwQCMAAwHQYDVR0OBBYEFBTqmEFE33wdWR2ojxQpJ8f6I30+MB8G
A1UdIwQYMBaAFIb61VNQdE/yuHKysNG0b0Z2X9bBMA0GCSqGSIb3DQEBCwUAA4IB
AQAKgNTRx47xNDE6bPJ+ShhKBsqOcqkQiLlBas7+BYSq26agndTYPEiQtMYck1uV
OGPj/WV5gi29hUreIzQOc8dUThuqfeWYyrfrZdpgMasUsld5SLCxNL0YzrY9eMnV
Lnhgi7eejnJC+u16s9ywbsUeOb90BeaX/NTWg0CBVu0OS5iP7ApW+xG0tdUg004w
mEAoj3OCppx7+wdGow11OrC1fdYy5xYtxJ84VpejufWhdkd6agbjw3aZpBbXH/7S
lfrh2L71NETD4tM8LUb05HQGFjGaz/ned1lmKNzDXNJf0ZcR1OjLkpPsVPKirYzr
3rcXmYMjFxqI4WuAHEn73Atd
-----END CERTIFICATE-----
